; Function Attrs: nounwind uwtable
define range(i32 -1, 1) i32 @H5VL_free_lib_state(ptr noundef %0) local_unnamed_addr #0 {
  %2 = tail call i32 @H5CX_free_state(ptr noundef %0) #10
  %3 = icmp slt i32 %2, 0
  br i1 %3, label %4, label %8

4:                                                ; preds = %1
  %5 = load i64, ptr @H5E_VOL_g, align 8
  %6 = load i64, ptr @H5E_CANTRELEASE_g, align 8
  %7 = tail call i32 (ptr, ptr, i32, i64, i64, ptr, ...) @H5E_printf_stack(ptr noundef nonnull @.str.2, ptr noundef nonnull @__func__.H5VL_free_lib_state, i32 noundef 2151, i64 noundef %5, i64 noundef %6, ptr noundef nonnull @.str.82) #10
  br label %8

8:                                                ; preds = %1, %4
  %.0 = phi i32 [ -1, %4 ], [ 0, %1 ]
  ret i32 %.0
}